target datalayout = "e-m:e-p270:32:32-p271:32:32-p272:64:64-i64:64-i128:128-f80:128-n8:16:32:64-S128"
target triple = "x86_64-pc-linux-gnu"

@hf_gdsdb_free_statement = internal global i32 0, align 4
@hf_gdsdb_free_option = internal global i32 0, align 4

; Function Attrs: nounwind uwtable
define internal i32 @gdsdb_free_statement(ptr noundef %0, ptr noundef %1, ptr noundef %2, i32 noundef %3) #0 {
  %5 = alloca i32, align 4
  %6 = alloca ptr, align 8
  %7 = alloca ptr, align 8
  %8 = alloca ptr, align 8
  %9 = alloca i32, align 4
  store ptr %0, ptr %6, align 8
  store ptr %1, ptr %7, align 8
  store ptr %2, ptr %8, align 8
  store i32 %3, ptr %9, align 4
  %10 = load ptr, ptr %6, align 8
  %11 = load i32, ptr %9, align 4
  %12 = call i32 @tvb_reported_length_remaining(ptr noundef %10, i32 noundef %11)
  %13 = icmp slt i32 %12, 8
  br i1 %13, label %14, label %15

14:                                               ; preds = %4
  store i32 -1, ptr %5, align 4
  br label %31

15:                                               ; preds = %4
  %16 = load ptr, ptr %8, align 8
  %17 = load i32, ptr @hf_gdsdb_free_statement, align 4
  %18 = load ptr, ptr %6, align 8
  %19 = load i32, ptr %9, align 4
  %20 = call ptr @proto_tree_add_item(ptr noundef %16, i32 noundef %17, ptr noundef %18, i32 noundef %19, i32 noundef 4, i32 noundef 0)
  %21 = load i32, ptr %9, align 4
  %22 = add i32 %21, 4
  store i32 %22, ptr %9, align 4
  %23 = load ptr, ptr %8, align 8
  %24 = load i32, ptr @hf_gdsdb_free_option, align 4
  %25 = load ptr, ptr %6, align 8
  %26 = load i32, ptr %9, align 4
  %27 = call ptr @proto_tree_add_item(ptr noundef %23, i32 noundef %24, ptr noundef %25, i32 noundef %26, i32 noundef 4, i32 noundef 0)
  %28 = load i32, ptr %9, align 4
  %29 = add i32 %28, 4
  store i32 %29, ptr %9, align 4
  %30 = load i32, ptr %9, align 4
  store i32 %30, ptr %5, align 4
  br label %31

31:                                               ; preds = %15, %14
  %32 = load i32, ptr %5, align 4
  ret i32 %32
}