; Function Attrs: nounwind uwtable
define internal noundef i32 @gdsdb_free_statement(ptr noundef %0, ptr readnone captures(none) %1, ptr noundef %2, i32 noundef %3) #0 {
  %5 = tail call i32 @tvb_reported_length_remaining(ptr noundef %0, i32 noundef %3) #3
  %6 = icmp slt i32 %5, 8
  br i1 %6, label %14, label %7

7:                                                ; preds = %4
  %8 = load i32, ptr @hf_gdsdb_free_statement, align 4
  %9 = tail call ptr @proto_tree_add_item(ptr noundef %2, i32 noundef %8, ptr noundef %0, i32 noundef %3, i32 noundef 4, i32 noundef 0) #3
  %10 = add i32 %3, 4
  %11 = load i32, ptr @hf_gdsdb_free_option, align 4
  %12 = tail call ptr @proto_tree_add_item(ptr noundef %2, i32 noundef %11, ptr noundef %0, i32 noundef %10, i32 noundef 4, i32 noundef 0) #3
  %13 = add i32 %3, 8
  br label %14

14:                                               ; preds = %4, %7
  %.0 = phi i32 [ %13, %7 ], [ -1, %4 ]
  ret i32 %.0
}